target datalayout = "e-m:e-p270:32:32-p271:32:32-p272:64:64-i64:64-i128:128-f80:128-n8:16:32:64-S128"
target triple = "x86_64-pc-linux-gnu"

%struct.mbedtls_ssl_context = type { ptr, i32, i32, i32, i32, i32, ptr, ptr, ptr, ptr, ptr, ptr, ptr, ptr, ptr, ptr, ptr, ptr, ptr, ptr, ptr, ptr, ptr, ptr, ptr, ptr, ptr, ptr, ptr, ptr, ptr, ptr, ptr, i32, i64, i64, i16, i64, i64, i64, i64, i32, i32, i8, i8, i32, i8, ptr, ptr, ptr, ptr, ptr, ptr, ptr, i32, i64, i64, [8 x i8], i16, ptr, ptr, ptr, i64, i32, i64, [12 x i8], [12 x i8], [32 x i8], i8, i8, ptr, ptr, %union.mbedtls_ssl_user_data_t }
%union.mbedtls_ssl_user_data_t = type { i64 }
%struct.mbedtls_mpi = type { ptr, i16, i16 }
%struct.mbedtls_ssl_config = type { i32, i32, i8, i8, i8, i8, i8, i8, i8, i8, i8, i8, i16, i8, i8, i8, ptr, i32, ptr, ptr, ptr, ptr, ptr, ptr, ptr, ptr, ptr, ptr, ptr, ptr, ptr, ptr, ptr, ptr, ptr, ptr, ptr, i64, ptr, ptr, ptr, ptr, ptr, ptr, ptr, ptr, %struct.mbedtls_mpi, %struct.mbedtls_mpi, ptr, i64, ptr, i64, ptr, i32, i32, i32, i32, [8 x i8], i32, i32, %union.mbedtls_ssl_user_data_t, ptr, ptr }
%struct.mbedtls_ssl_ciphersuite_t = type { i32, ptr, i8, i8, i8, i8, i16, i16 }

@.str = private unnamed_addr constant [130 x i8] c"generated/home/dtcxzyw/WorkSpace/Projects/compilers/llvm-opt-benchmark/bench/lief/bench_build/mbed_src/library/ssl_tls13_server.c\00", align 1
@.str.48 = private unnamed_addr constant [64 x i8] c"No matched ciphersuite, psk_ciphersuite_id=%x, psk_hash_alg=%lx\00", align 1

; Function Attrs: inlinehint nounwind uwtable
define internal i32 @mbedtls_ssl_tls13_cipher_suite_is_offered(ptr noundef %0, i32 noundef %1) #3 {
  %3 = alloca i32, align 4
  %4 = alloca ptr, align 8
  %5 = alloca i32, align 4
  %6 = alloca ptr, align 8
  %7 = alloca i64, align 8
  %8 = alloca i32, align 4
  store ptr %0, ptr %4, align 8, !tbaa !3
  store i32 %1, ptr %5, align 4, !tbaa !8
  call void @llvm.lifetime.start.p0(i64 8, ptr %6) #10
  %9 = load ptr, ptr %4, align 8, !tbaa !3
  %10 = getelementptr inbounds nuw %struct.mbedtls_ssl_context, ptr %9, i32 0, i32 0
  %11 = load ptr, ptr %10, align 8, !tbaa !43
  %12 = getelementptr inbounds nuw %struct.mbedtls_ssl_config, ptr %11, i32 0, i32 16
  %13 = load ptr, ptr %12, align 8, !tbaa !100
  store ptr %13, ptr %6, align 8, !tbaa !101
  call void @llvm.lifetime.start.p0(i64 8, ptr %7) #10
  store i64 0, ptr %7, align 8, !tbaa !42
  br label %14

14:                                               ; preds = %30, %2
  %15 = load ptr, ptr %6, align 8, !tbaa !101
  %16 = load i64, ptr %7, align 8, !tbaa !42
  %17 = getelementptr inbounds nuw i32, ptr %15, i64 %16
  %18 = load i32, ptr %17, align 4, !tbaa !8
  %19 = icmp ne i32 %18, 0
  br i1 %19, label %21, label %20

20:                                               ; preds = %14
  store i32 2, ptr %8, align 4
  br label %33

21:                                               ; preds = %14
  %22 = load ptr, ptr %6, align 8, !tbaa !101
  %23 = load i64, ptr %7, align 8, !tbaa !42
  %24 = getelementptr inbounds nuw i32, ptr %22, i64 %23
  %25 = load i32, ptr %24, align 4, !tbaa !8
  %26 = load i32, ptr %5, align 4, !tbaa !8
  %27 = icmp eq i32 %25, %26
  br i1 %27, label %28, label %29

28:                                               ; preds = %21
  store i32 1, ptr %3, align 4
  store i32 1, ptr %8, align 4
  br label %33

29:                                               ; preds = %21
  br label %30

30:                                               ; preds = %29
  %31 = load i64, ptr %7, align 8, !tbaa !42
  %32 = add i64 %31, 1
  store i64 %32, ptr %7, align 8, !tbaa !42
  br label %14, !llvm.loop !102

33:                                               ; preds = %28, %20
  call void @llvm.lifetime.end.p0(i64 8, ptr %7) #10
  %34 = load i32, ptr %8, align 4
  switch i32 %34, label %36 [
    i32 2, label %35
  ]

35:                                               ; preds = %33
  store i32 0, ptr %3, align 4
  store i32 1, ptr %8, align 4
  br label %36

36:                                               ; preds = %35, %33
  call void @llvm.lifetime.end.p0(i64 8, ptr %6) #10
  %37 = load i32, ptr %3, align 4
  ret i32 %37
}

; Function Attrs: inlinehint nounwind uwtable
define internal i32 @mbedtls_md_psa_alg_from_type(i32 noundef %0) #3 {
  %2 = alloca i32, align 4
  store i32 %0, ptr %2, align 4, !tbaa !8
  %3 = load i32, ptr %2, align 4, !tbaa !8
  %4 = or i32 33554432, %3
  ret i32 %4
}

; Function Attrs: nounwind uwtable
define internal ptr @ssl_tls13_validate_peer_ciphersuite(ptr noundef %0, i32 noundef %1) #0 {
  %3 = alloca ptr, align 8
  %4 = alloca ptr, align 8
  %5 = alloca i32, align 4
  %6 = alloca ptr, align 8
  %7 = alloca i32, align 4
  store ptr %0, ptr %4, align 8, !tbaa !3
  store i32 %1, ptr %5, align 4, !tbaa !8
  call void @llvm.lifetime.start.p0(i64 8, ptr %6) #10
  %8 = load ptr, ptr %4, align 8, !tbaa !3
  %9 = load i32, ptr %5, align 4, !tbaa !8
  %10 = call i32 @mbedtls_ssl_tls13_cipher_suite_is_offered(ptr noundef %8, i32 noundef %9)
  %11 = icmp ne i32 %10, 0
  br i1 %11, label %13, label %12

12:                                               ; preds = %2
  store ptr null, ptr %3, align 8
  store i32 1, ptr %7, align 4
  br label %29

13:                                               ; preds = %2
  %14 = load i32, ptr %5, align 4, !tbaa !8
  %15 = call ptr @mbedtls_ssl_ciphersuite_from_id(i32 noundef %14)
  store ptr %15, ptr %6, align 8, !tbaa !86
  %16 = load ptr, ptr %4, align 8, !tbaa !3
  %17 = load ptr, ptr %6, align 8, !tbaa !86
  %18 = load ptr, ptr %4, align 8, !tbaa !3
  %19 = getelementptr inbounds nuw %struct.mbedtls_ssl_context, ptr %18, i32 0, i32 4
  %20 = load i32, ptr %19, align 4, !tbaa !45
  %21 = load ptr, ptr %4, align 8, !tbaa !3
  %22 = getelementptr inbounds nuw %struct.mbedtls_ssl_context, ptr %21, i32 0, i32 4
  %23 = load i32, ptr %22, align 4, !tbaa !45
  %24 = call i32 @mbedtls_ssl_validate_ciphersuite(ptr noundef %16, ptr noundef %17, i32 noundef %20, i32 noundef %23)
  %25 = icmp ne i32 %24, 0
  br i1 %25, label %26, label %27

26:                                               ; preds = %13
  store ptr null, ptr %3, align 8
  store i32 1, ptr %7, align 4
  br label %29

27:                                               ; preds = %13
  %28 = load ptr, ptr %6, align 8, !tbaa !86
  store ptr %28, ptr %3, align 8
  store i32 1, ptr %7, align 4
  br label %29

29:                                               ; preds = %27, %26, %12
  call void @llvm.lifetime.end.p0(i64 8, ptr %6) #10
  %30 = load ptr, ptr %3, align 8
  ret ptr %30
}

; Function Attrs: alwaysinline nounwind uwtable
define internal zeroext i16 @mbedtls_get_unaligned_uint16(ptr noundef %0) #5 {
  %2 = alloca ptr, align 8
  %3 = alloca i16, align 2
  store ptr %0, ptr %2, align 8, !tbaa !81
  call void @llvm.lifetime.start.p0(i64 2, ptr %3) #10
  %4 = load ptr, ptr %2, align 8, !tbaa !81
  call void @llvm.memcpy.p0.p0.i64(ptr align 2 %3, ptr align 1 %4, i64 2, i1 false)
  %5 = load i16, ptr %3, align 2, !tbaa !82
  call void @llvm.lifetime.end.p0(i64 2, ptr %3) #10
  ret i16 %5
}

; Function Attrs: nounwind uwtable
define internal void @ssl_tls13_select_ciphersuite(ptr noundef %0, ptr noundef %1, ptr noundef %2, i32 noundef %3, i32 noundef %4, ptr noundef %5) #0 {
  %7 = alloca ptr, align 8
  %8 = alloca ptr, align 8
  %9 = alloca ptr, align 8
  %10 = alloca i32, align 4
  %11 = alloca i32, align 4
  %12 = alloca ptr, align 8
  %13 = alloca ptr, align 8
  %14 = alloca i32, align 4
  %15 = alloca i16, align 2
  %16 = alloca ptr, align 8
  store ptr %0, ptr %7, align 8, !tbaa !3
  store ptr %1, ptr %8, align 8, !tbaa !41
  store ptr %2, ptr %9, align 8, !tbaa !41
  store i32 %3, ptr %10, align 4, !tbaa !8
  store i32 %4, ptr %11, align 4, !tbaa !8
  store ptr %5, ptr %12, align 8, !tbaa !84
  %17 = load ptr, ptr %12, align 8, !tbaa !84
  store ptr null, ptr %17, align 8, !tbaa !86
  %18 = load ptr, ptr %9, align 8, !tbaa !41
  %19 = load ptr, ptr %8, align 8, !tbaa !41
  %20 = ptrtoint ptr %18 to i64
  %21 = ptrtoint ptr %19 to i64
  %22 = sub i64 %20, %21
  %23 = and i64 %22, 1
  %24 = icmp ne i64 %23, 0
  br i1 %24, label %25, label %26

25:                                               ; preds = %6
  br label %86

26:                                               ; preds = %6
  call void @llvm.lifetime.start.p0(i64 8, ptr %13) #10
  %27 = load ptr, ptr %8, align 8, !tbaa !41
  store ptr %27, ptr %13, align 8, !tbaa !41
  br label %28

28:                                               ; preds = %76, %26
  %29 = load ptr, ptr %13, align 8, !tbaa !41
  %30 = load ptr, ptr %9, align 8, !tbaa !41
  %31 = icmp ult ptr %29, %30
  br i1 %31, label %33, label %32

32:                                               ; preds = %28
  store i32 2, ptr %14, align 4
  br label %79

33:                                               ; preds = %28
  call void @llvm.lifetime.start.p0(i64 2, ptr %15) #10
  %34 = load ptr, ptr %13, align 8, !tbaa !41
  %35 = getelementptr inbounds i8, ptr %34, i64 0
  %36 = call zeroext i16 @mbedtls_get_unaligned_uint16(ptr noundef %35)
  %37 = call i16 @llvm.bswap.i16(i16 %36)
  %38 = zext i16 %37 to i32
  %39 = trunc i32 %38 to i16
  store i16 %39, ptr %15, align 2, !tbaa !82
  call void @llvm.lifetime.start.p0(i64 8, ptr %16) #10
  %40 = load ptr, ptr %7, align 8, !tbaa !3
  %41 = load i16, ptr %15, align 2, !tbaa !82
  %42 = zext i16 %41 to i32
  %43 = call ptr @ssl_tls13_validate_peer_ciphersuite(ptr noundef %40, i32 noundef %42)
  store ptr %43, ptr %16, align 8, !tbaa !86
  %44 = load ptr, ptr %16, align 8, !tbaa !86
  %45 = icmp eq ptr %44, null
  br i1 %45, label %46, label %47

46:                                               ; preds = %33
  store i32 4, ptr %14, align 4
  br label %74

47:                                               ; preds = %33
  %48 = load i32, ptr %10, align 4, !tbaa !8
  %49 = icmp ne i32 %48, 0
  br i1 %49, label %50, label %57

50:                                               ; preds = %47
  %51 = load i16, ptr %15, align 2, !tbaa !82
  %52 = zext i16 %51 to i32
  %53 = load i32, ptr %10, align 4, !tbaa !8
  %54 = icmp ne i32 %52, %53
  br i1 %54, label %55, label %56

55:                                               ; preds = %50
  store i32 4, ptr %14, align 4
  br label %74

56:                                               ; preds = %50
  br label %71

57:                                               ; preds = %47
  %58 = load i32, ptr %11, align 4, !tbaa !8
  %59 = icmp ne i32 %58, 0
  br i1 %59, label %60, label %70

60:                                               ; preds = %57
  %61 = load ptr, ptr %16, align 8, !tbaa !86
  %62 = getelementptr inbounds nuw %struct.mbedtls_ssl_ciphersuite_t, ptr %61, i32 0, i32 3
  %63 = load i8, ptr %62, align 1, !tbaa !87
  %64 = zext i8 %63 to i32
  %65 = call i32 @mbedtls_md_psa_alg_from_type(i32 noundef %64)
  %66 = load i32, ptr %11, align 4, !tbaa !8
  %67 = icmp ne i32 %65, %66
  br i1 %67, label %68, label %69

68:                                               ; preds = %60
  store i32 4, ptr %14, align 4
  br label %74

69:                                               ; preds = %60
  br label %70

70:                                               ; preds = %69, %57
  br label %71

71:                                               ; preds = %70, %56
  %72 = load ptr, ptr %16, align 8, !tbaa !86
  %73 = load ptr, ptr %12, align 8, !tbaa !84
  store ptr %72, ptr %73, align 8, !tbaa !86
  store i32 1, ptr %14, align 4
  br label %74

74:                                               ; preds = %71, %68, %55, %46
  call void @llvm.lifetime.end.p0(i64 8, ptr %16) #10
  call void @llvm.lifetime.end.p0(i64 2, ptr %15) #10
  %75 = load i32, ptr %14, align 4
  switch i32 %75, label %79 [
    i32 4, label %76
  ]

76:                                               ; preds = %74
  %77 = load ptr, ptr %13, align 8, !tbaa !41
  %78 = getelementptr inbounds i8, ptr %77, i64 2
  store ptr %78, ptr %13, align 8, !tbaa !41
  br label %28, !llvm.loop !88

79:                                               ; preds = %74, %32
  call void @llvm.lifetime.end.p0(i64 8, ptr %13) #10
  %80 = load i32, ptr %14, align 4
  switch i32 %80, label %87 [
    i32 2, label %81
    i32 1, label %86
  ]

81:                                               ; preds = %79
  %82 = load ptr, ptr %7, align 8, !tbaa !3
  %83 = load i32, ptr %10, align 4, !tbaa !8
  %84 = load i32, ptr %11, align 4, !tbaa !8
  %85 = zext i32 %84 to i64
  call void (ptr, i32, ptr, i32, ptr, ...) @mbedtls_debug_print_msg(ptr noundef %82, i32 noundef 2, ptr noundef @.str, i32 noundef 97, ptr noundef @.str.48, i32 noundef %83, i64 noundef %85)
  br label %86

86:                                               ; preds = %81, %79, %25
  ret void

87:                                               ; preds = %79
  unreachable
}