; Function Attrs: nounwind uwtable
define internal fastcc void @ssl_tls13_select_ciphersuite(ptr noundef %0, ptr noundef %1, ptr noundef %2, i32 noundef %3, i32 noundef range(i32 0, 33554442) %4, ptr noundef writeonly captures(none) initializes((0, 8)) %5) unnamed_addr #0 {
  store ptr null, ptr %5, align 8, !tbaa !108
  %7 = ptrtoint ptr %2 to i64
  %8 = ptrtoint ptr %1 to i64
  %9 = sub i64 %7, %8
  %10 = and i64 %9, 1
  %.not = icmp eq i64 %10, 0
  br i1 %.not, label %.preheader, label %64

.preheader:                                       ; preds = %6
  %11 = icmp ult ptr %1, %2
  br i1 %11, label %.lr.ph, label %._crit_edge

.lr.ph:                                           ; preds = %.preheader
  %12 = getelementptr inbounds nuw i8, ptr %0, i64 20
  %.not27 = icmp eq i32 %3, 0
  br i1 %.not27, label %.lr.ph.split.us, label %.lr.ph.split

.lr.ph.split.us:                                  ; preds = %.lr.ph
  %.not28 = icmp eq i32 %4, 0
  br i1 %.not28, label %.lr.ph.split.us.split.us, label %.lr.ph.split.us.split

.lr.ph.split.us.split.us:                         ; preds = %.lr.ph.split.us, %ssl_tls13_validate_peer_ciphersuite.exit.thread.us.us
  %.038.us.us = phi ptr [ %26, %ssl_tls13_validate_peer_ciphersuite.exit.thread.us.us ], [ %1, %.lr.ph.split.us ]
  %.0.copyload.i.us.us = load i16, ptr %.038.us.us, align 1
  %13 = tail call i16 @llvm.bswap.i16(i16 %.0.copyload.i.us.us)
  %14 = zext i16 %13 to i32
  %.val.i.us.us = load ptr, ptr %0, align 8, !tbaa !40
  %15 = getelementptr i8, ptr %.val.i.us.us, i64 24
  %.val.val.i.us.us = load ptr, ptr %15, align 8, !tbaa !109
  br label %16

16:                                               ; preds = %16, %.lr.ph.split.us.split.us
  %.08.i.i.us.us = phi i64 [ 0, %.lr.ph.split.us.split.us ], [ %20, %16 ]
  %17 = getelementptr inbounds nuw i32, ptr %.val.val.i.us.us, i64 %.08.i.i.us.us
  %18 = load i32, ptr %17, align 4, !tbaa !106
  %.not.i.i.us.us = icmp eq i32 %18, 0
  %19 = icmp eq i32 %18, %14
  %or.cond.i.i.us.us = or i1 %.not.i.i.us.us, %19
  %20 = add i64 %.08.i.i.us.us, 1
  br i1 %or.cond.i.i.us.us, label %mbedtls_ssl_tls13_cipher_suite_is_offered.exit.i.us.us, label %16, !llvm.loop !110

mbedtls_ssl_tls13_cipher_suite_is_offered.exit.i.us.us: ; preds = %16
  br i1 %.not.i.i.us.us, label %ssl_tls13_validate_peer_ciphersuite.exit.thread.us.us, label %21

21:                                               ; preds = %mbedtls_ssl_tls13_cipher_suite_is_offered.exit.i.us.us
  %22 = tail call ptr @mbedtls_ssl_ciphersuite_from_id(i32 noundef range(i32 0, 65536) %14) #9
  %23 = load i32, ptr %12, align 4, !tbaa !48
  %24 = tail call i32 @mbedtls_ssl_validate_ciphersuite(ptr noundef nonnull %0, ptr noundef %22, i32 noundef %23, i32 noundef %23) #9
  %.not8.i.us.us = icmp ne i32 %24, 0
  %25 = icmp eq ptr %22, null
  %or.cond.us.us = or i1 %25, %.not8.i.us.us
  br i1 %or.cond.us.us, label %ssl_tls13_validate_peer_ciphersuite.exit.thread.us.us, label %.split.us

ssl_tls13_validate_peer_ciphersuite.exit.thread.us.us: ; preds = %21, %mbedtls_ssl_tls13_cipher_suite_is_offered.exit.i.us.us
  %26 = getelementptr inbounds nuw i8, ptr %.038.us.us, i64 2
  %27 = icmp ult ptr %26, %2
  br i1 %27, label %.lr.ph.split.us.split.us, label %._crit_edge, !llvm.loop !111

.lr.ph.split.us.split:                            ; preds = %.lr.ph.split.us, %ssl_tls13_validate_peer_ciphersuite.exit.thread.us
  %.038.us = phi ptr [ %46, %ssl_tls13_validate_peer_ciphersuite.exit.thread.us ], [ %1, %.lr.ph.split.us ]
  %.0.copyload.i.us = load i16, ptr %.038.us, align 1
  %28 = tail call i16 @llvm.bswap.i16(i16 %.0.copyload.i.us)
  %29 = zext i16 %28 to i32
  %.val.i.us = load ptr, ptr %0, align 8, !tbaa !40
  %30 = getelementptr i8, ptr %.val.i.us, i64 24
  %.val.val.i.us = load ptr, ptr %30, align 8, !tbaa !109
  br label %31

31:                                               ; preds = %31, %.lr.ph.split.us.split
  %.08.i.i.us = phi i64 [ 0, %.lr.ph.split.us.split ], [ %35, %31 ]
  %32 = getelementptr inbounds nuw i32, ptr %.val.val.i.us, i64 %.08.i.i.us
  %33 = load i32, ptr %32, align 4, !tbaa !106
  %.not.i.i.us = icmp eq i32 %33, 0
  %34 = icmp eq i32 %33, %29
  %or.cond.i.i.us = or i1 %.not.i.i.us, %34
  %35 = add i64 %.08.i.i.us, 1
  br i1 %or.cond.i.i.us, label %mbedtls_ssl_tls13_cipher_suite_is_offered.exit.i.us, label %31, !llvm.loop !110

mbedtls_ssl_tls13_cipher_suite_is_offered.exit.i.us: ; preds = %31
  br i1 %.not.i.i.us, label %ssl_tls13_validate_peer_ciphersuite.exit.thread.us, label %36

36:                                               ; preds = %mbedtls_ssl_tls13_cipher_suite_is_offered.exit.i.us
  %37 = tail call ptr @mbedtls_ssl_ciphersuite_from_id(i32 noundef range(i32 0, 65536) %29) #9
  %38 = load i32, ptr %12, align 4, !tbaa !48
  %39 = tail call i32 @mbedtls_ssl_validate_ciphersuite(ptr noundef nonnull %0, ptr noundef %37, i32 noundef %38, i32 noundef %38) #9
  %.not8.i.us = icmp ne i32 %39, 0
  %40 = icmp eq ptr %37, null
  %or.cond.us = or i1 %40, %.not8.i.us
  br i1 %or.cond.us, label %ssl_tls13_validate_peer_ciphersuite.exit.thread.us, label %41

41:                                               ; preds = %36
  %42 = getelementptr inbounds nuw i8, ptr %37, i64 17
  %43 = load i8, ptr %42, align 1, !tbaa !102
  %44 = zext i8 %43 to i32
  %45 = or disjoint i32 %44, 33554432
  %.not29.us = icmp eq i32 %45, %4
  br i1 %.not29.us, label %.split.us, label %ssl_tls13_validate_peer_ciphersuite.exit.thread.us

ssl_tls13_validate_peer_ciphersuite.exit.thread.us: ; preds = %41, %36, %mbedtls_ssl_tls13_cipher_suite_is_offered.exit.i.us
  %46 = getelementptr inbounds nuw i8, ptr %.038.us, i64 2
  %47 = icmp ult ptr %46, %2
  br i1 %47, label %.lr.ph.split.us.split, label %._crit_edge, !llvm.loop !111

.lr.ph.split:                                     ; preds = %.lr.ph, %ssl_tls13_validate_peer_ciphersuite.exit.thread
  %.038 = phi ptr [ %61, %ssl_tls13_validate_peer_ciphersuite.exit.thread ], [ %1, %.lr.ph ]
  %.0.copyload.i = load i16, ptr %.038, align 1
  %48 = tail call i16 @llvm.bswap.i16(i16 %.0.copyload.i)
  %49 = zext i16 %48 to i32
  %.val.i = load ptr, ptr %0, align 8, !tbaa !40
  %50 = getelementptr i8, ptr %.val.i, i64 24
  %.val.val.i = load ptr, ptr %50, align 8, !tbaa !109
  br label %51

51:                                               ; preds = %51, %.lr.ph.split
  %.08.i.i = phi i64 [ 0, %.lr.ph.split ], [ %55, %51 ]
  %52 = getelementptr inbounds nuw i32, ptr %.val.val.i, i64 %.08.i.i
  %53 = load i32, ptr %52, align 4, !tbaa !106
  %.not.i.i = icmp eq i32 %53, 0
  %54 = icmp eq i32 %53, %49
  %or.cond.i.i = or i1 %.not.i.i, %54
  %55 = add i64 %.08.i.i, 1
  br i1 %or.cond.i.i, label %mbedtls_ssl_tls13_cipher_suite_is_offered.exit.i, label %51, !llvm.loop !110

mbedtls_ssl_tls13_cipher_suite_is_offered.exit.i: ; preds = %51
  br i1 %.not.i.i, label %ssl_tls13_validate_peer_ciphersuite.exit.thread, label %56

56:                                               ; preds = %mbedtls_ssl_tls13_cipher_suite_is_offered.exit.i
  %57 = tail call ptr @mbedtls_ssl_ciphersuite_from_id(i32 noundef range(i32 0, 65536) %49) #9
  %58 = load i32, ptr %12, align 4, !tbaa !48
  %59 = tail call i32 @mbedtls_ssl_validate_ciphersuite(ptr noundef nonnull %0, ptr noundef %57, i32 noundef %58, i32 noundef %58) #9
  %.not8.i = icmp eq i32 %59, 0
  %60 = icmp ne ptr %57, null
  %or.cond.not43 = and i1 %60, %.not8.i
  %.not30 = icmp eq i32 %3, %49
  %or.cond41 = and i1 %or.cond.not43, %.not30
  br i1 %or.cond41, label %.split.us, label %ssl_tls13_validate_peer_ciphersuite.exit.thread

ssl_tls13_validate_peer_ciphersuite.exit.thread:  ; preds = %56, %mbedtls_ssl_tls13_cipher_suite_is_offered.exit.i
  %61 = getelementptr inbounds nuw i8, ptr %.038, i64 2
  %62 = icmp ult ptr %61, %2
  br i1 %62, label %.lr.ph.split, label %._crit_edge, !llvm.loop !111

.split.us:                                        ; preds = %56, %41, %21
  %.us-phi = phi ptr [ %22, %21 ], [ %37, %41 ], [ %57, %56 ]
  store ptr %.us-phi, ptr %5, align 8, !tbaa !108
  br label %64

._crit_edge:                                      ; preds = %ssl_tls13_validate_peer_ciphersuite.exit.thread, %ssl_tls13_validate_peer_ciphersuite.exit.thread.us, %ssl_tls13_validate_peer_ciphersuite.exit.thread.us.us, %.preheader
  %63 = zext nneg i32 %4 to i64
  tail call void (ptr, i32, ptr, i32, ptr, ...) @mbedtls_debug_print_msg(ptr noundef %0, i32 noundef 2, ptr noundef nonnull @.str, i32 noundef 97, ptr noundef nonnull @.str.48, i32 noundef %3, i64 noundef %63) #9
  br label %64

64:                                               ; preds = %.split.us, %6, %._crit_edge
  ret void
}